; ModuleID = '24/2599.c'
source_filename = "24/2599.c"
target datalayout = "e-m:e-p270:32:32-p271:32:32-p272:64:64-i64:64-f80:128-n8:16:32:64-S128"
target triple = "x86_64-pc-linux-gnu"

@.str = private unnamed_addr constant [3 x i8] c"%d\00", align 1
@.str.1 = private unnamed_addr constant [3 x i8] c"%s\00", align 1
@.str.2 = private unnamed_addr constant [3 x i8] c"%c\00", align 1
@.str.3 = private unnamed_addr constant [2 x i8] c"\0A\00", align 1

; Function Attrs: noinline nounwind uwtable
define dso_local i32 @main(i32 %0, i8** %1) #0 {
  %3 = alloca i32, align 4
  %4 = alloca i32, align 4
  %5 = alloca i8**, align 8
  %6 = alloca i32, align 4
  %7 = alloca i32, align 4
  %8 = alloca i32, align 4
  %9 = alloca i32, align 4
  %10 = alloca i32, align 4
  %11 = alloca i32, align 4
  %12 = alloca i32, align 4
  %13 = alloca [50 x i8], align 16
  %14 = alloca [50 x i8], align 16
  %15 = alloca [50 x i8], align 16
  store i32 0, i32* %3, align 4
  store i32 %0, i32* %4, align 4
  store i8** %1, i8*** %5, align 8
  store i32 0, i32* %11, align 4
  store i32 50, i32* %12, align 4
  %16 = call i32 (i8*, ...) @__isoc99_scanf(i8* getelementptr inbounds ([3 x i8], [3 x i8]* @.str, i64 0, i64 0), i32* %6)
  %17 = call i32 (i8*, ...) @__isoc99_scanf(i8* getelementptr inbounds ([3 x i8], [3 x i8]* @.str.1, i64 0, i64 0), [50 x i8]* %13)
  %18 = getelementptr inbounds [50 x i8], [50 x i8]* %13, i64 0, i64 0
  %19 = call i64 @strlen(i8* %18) #3
  %20 = trunc i64 %19 to i32
  store i32 %20, i32* %10, align 4
  %21 = load i32, i32* %10, align 4
  store i32 %21, i32* %12, align 4
  %22 = load i32, i32* %10, align 4
  store i32 %22, i32* %11, align 4
  store i32 0, i32* %8, align 4
  br label %23

23:                                               ; preds = %35, %2
  %24 = load i32, i32* %8, align 4
  %25 = load i32, i32* %10, align 4
  %26 = icmp sle i32 %24, %25
  br i1 %26, label %27, label %38

27:                                               ; preds = %23
  %28 = load i32, i32* %8, align 4
  %29 = sext i32 %28 to i64
  %30 = getelementptr inbounds [50 x i8], [50 x i8]* %13, i64 0, i64 %29
  %31 = load i8, i8* %30, align 1
  %32 = load i32, i32* %8, align 4
  %33 = sext i32 %32 to i64
  %34 = getelementptr inbounds [50 x i8], [50 x i8]* %15, i64 0, i64 %33
  store i8 %31, i8* %34, align 1
  br label %35

35:                                               ; preds = %27
  %36 = load i32, i32* %8, align 4
  %37 = add nsw i32 %36, 1
  store i32 %37, i32* %8, align 4
  br label %23

38:                                               ; preds = %23
  store i32 0, i32* %8, align 4
  br label %39

39:                                               ; preds = %51, %38
  %40 = load i32, i32* %8, align 4
  %41 = load i32, i32* %10, align 4
  %42 = icmp sle i32 %40, %41
  br i1 %42, label %43, label %54

43:                                               ; preds = %39
  %44 = load i32, i32* %8, align 4
  %45 = sext i32 %44 to i64
  %46 = getelementptr inbounds [50 x i8], [50 x i8]* %13, i64 0, i64 %45
  %47 = load i8, i8* %46, align 1
  %48 = load i32, i32* %8, align 4
  %49 = sext i32 %48 to i64
  %50 = getelementptr inbounds [50 x i8], [50 x i8]* %14, i64 0, i64 %49
  store i8 %47, i8* %50, align 1
  br label %51

51:                                               ; preds = %43
  %52 = load i32, i32* %8, align 4
  %53 = add nsw i32 %52, 1
  store i32 %53, i32* %8, align 4
  br label %39

54:                                               ; preds = %39
  store i32 2, i32* %9, align 4
  br label %55

55:                                               ; preds = %109, %54
  %56 = load i32, i32* %9, align 4
  %57 = load i32, i32* %6, align 4
  %58 = icmp sle i32 %56, %57
  br i1 %58, label %59, label %112

59:                                               ; preds = %55
  %60 = call i32 (i8*, ...) @__isoc99_scanf(i8* getelementptr inbounds ([3 x i8], [3 x i8]* @.str.1, i64 0, i64 0), [50 x i8]* %13)
  %61 = getelementptr inbounds [50 x i8], [50 x i8]* %13, i64 0, i64 0
  %62 = call i64 @strlen(i8* %61) #3
  %63 = trunc i64 %62 to i32
  store i32 %63, i32* %10, align 4
  %64 = load i32, i32* %10, align 4
  %65 = load i32, i32* %12, align 4
  %66 = icmp slt i32 %64, %65
  br i1 %66, label %67, label %85

67:                                               ; preds = %59
  store i32 0, i32* %8, align 4
  br label %68

68:                                               ; preds = %80, %67
  %69 = load i32, i32* %8, align 4
  %70 = load i32, i32* %10, align 4
  %71 = icmp sle i32 %69, %70
  br i1 %71, label %72, label %83

72:                                               ; preds = %68
  %73 = load i32, i32* %8, align 4
  %74 = sext i32 %73 to i64
  %75 = getelementptr inbounds [50 x i8], [50 x i8]* %13, i64 0, i64 %74
  %76 = load i8, i8* %75, align 1
  %77 = load i32, i32* %8, align 4
  %78 = sext i32 %77 to i64
  %79 = getelementptr inbounds [50 x i8], [50 x i8]* %15, i64 0, i64 %78
  store i8 %76, i8* %79, align 1
  br label %80

80:                                               ; preds = %72
  %81 = load i32, i32* %8, align 4
  %82 = add nsw i32 %81, 1
  store i32 %82, i32* %8, align 4
  br label %68

83:                                               ; preds = %68
  %84 = load i32, i32* %10, align 4
  store i32 %84, i32* %12, align 4
  br label %108

85:                                               ; preds = %59
  %86 = load i32, i32* %10, align 4
  %87 = load i32, i32* %11, align 4
  %88 = icmp sgt i32 %86, %87
  br i1 %88, label %89, label %107

89:                                               ; preds = %85
  store i32 0, i32* %7, align 4
  br label %90

90:                                               ; preds = %102, %89
  %91 = load i32, i32* %7, align 4
  %92 = load i32, i32* %10, align 4
  %93 = icmp sle i32 %91, %92
  br i1 %93, label %94, label %105

94:                                               ; preds = %90
  %95 = load i32, i32* %7, align 4
  %96 = sext i32 %95 to i64
  %97 = getelementptr inbounds [50 x i8], [50 x i8]* %13, i64 0, i64 %96
  %98 = load i8, i8* %97, align 1
  %99 = load i32, i32* %7, align 4
  %100 = sext i32 %99 to i64
  %101 = getelementptr inbounds [50 x i8], [50 x i8]* %14, i64 0, i64 %100
  store i8 %98, i8* %101, align 1
  br label %102

102:                                              ; preds = %94
  %103 = load i32, i32* %7, align 4
  %104 = add nsw i32 %103, 1
  store i32 %104, i32* %7, align 4
  br label %90

105:                                              ; preds = %90
  %106 = load i32, i32* %10, align 4
  store i32 %106, i32* %11, align 4
  br label %107

107:                                              ; preds = %105, %85
  br label %108

108:                                              ; preds = %107, %83
  br label %109

109:                                              ; preds = %108
  %110 = load i32, i32* %9, align 4
  %111 = add nsw i32 %110, 1
  store i32 %111, i32* %9, align 4
  br label %55

112:                                              ; preds = %55
  store i32 0, i32* %8, align 4
  br label %113

113:                                              ; preds = %125, %112
  %114 = load i32, i32* %8, align 4
  %115 = load i32, i32* %11, align 4
  %116 = sub nsw i32 %115, 1
  %117 = icmp sle i32 %114, %116
  br i1 %117, label %118, label %128

118:                                              ; preds = %113
  %119 = load i32, i32* %8, align 4
  %120 = sext i32 %119 to i64
  %121 = getelementptr inbounds [50 x i8], [50 x i8]* %14, i64 0, i64 %120
  %122 = load i8, i8* %121, align 1
  %123 = sext i8 %122 to i32
  %124 = call i32 (i8*, ...) @printf(i8* getelementptr inbounds ([3 x i8], [3 x i8]* @.str.2, i64 0, i64 0), i32 %123)
  br label %125

125:                                              ; preds = %118
  %126 = load i32, i32* %8, align 4
  %127 = add nsw i32 %126, 1
  store i32 %127, i32* %8, align 4
  br label %113

128:                                              ; preds = %113
  %129 = call i32 (i8*, ...) @printf(i8* getelementptr inbounds ([2 x i8], [2 x i8]* @.str.3, i64 0, i64 0))
  store i32 0, i32* %8, align 4
  br label %130

130:                                              ; preds = %142, %128
  %131 = load i32, i32* %8, align 4
  %132 = load i32, i32* %12, align 4
  %133 = sub nsw i32 %132, 1
  %134 = icmp sle i32 %131, %133
  br i1 %134, label %135, label %145

135:                                              ; preds = %130
  %136 = load i32, i32* %8, align 4
  %137 = sext i32 %136 to i64
  %138 = getelementptr inbounds [50 x i8], [50 x i8]* %15, i64 0, i64 %137
  %139 = load i8, i8* %138, align 1
  %140 = sext i8 %139 to i32
  %141 = call i32 (i8*, ...) @printf(i8* getelementptr inbounds ([3 x i8], [3 x i8]* @.str.2, i64 0, i64 0), i32 %140)
  br label %142

142:                                              ; preds = %135
  %143 = load i32, i32* %8, align 4
  %144 = add nsw i32 %143, 1
  store i32 %144, i32* %8, align 4
  br label %130

145:                                              ; preds = %130
  ret i32 0
}

declare dso_local i32 @__isoc99_scanf(i8*, ...) #1

; Function Attrs: nounwind readonly
declare dso_local i64 @strlen(i8*) #2

declare dso_local i32 @printf(i8*, ...) #1


!llvm.module.flags = !{!0}
!llvm.ident = !{!1}

!0 = !{i32 1, !"wchar_size", i32 4}
!1 = !{!"clang version 10.0.0-4ubuntu1 "}
